target datalayout = "e-m:e-p270:32:32-p271:32:32-p272:64:64-i64:64-i128:128-f80:128-n8:16:32:64-S128"
target triple = "x86_64-pc-linux-gnu"

%"class.LIEF::MachO::LoadCommand" = type { %"class.LIEF::Object", %"class.std::vector", i64, i32, i64 }
%"class.LIEF::Object" = type { ptr }
%"class.std::vector" = type { %"struct.std::_Vector_base" }
%"struct.std::_Vector_base" = type { %"struct.std::_Vector_base<unsigned char, std::allocator<unsigned char>>::_Vector_impl" }
%"struct.std::_Vector_base<unsigned char, std::allocator<unsigned char>>::_Vector_impl" = type { %"struct.std::_Vector_base<unsigned char, std::allocator<unsigned char>>::_Vector_impl_data" }
%"struct.std::_Vector_base<unsigned char, std::allocator<unsigned char>>::_Vector_impl_data" = type { ptr, ptr, ptr }
%"class.LIEF::MachO::EncryptionInfo" = type <{ %"class.LIEF::MachO::LoadCommand", i32, i32, i32, [4 x i8] }>
%"struct.LIEF::MachO::details::encryption_info_command" = type { i32, i32, i32, i32, i32 }

; Function Attrs: mustprogress uwtable
define void @_ZN4LIEF5MachO14EncryptionInfoC2ERKNS0_7details23encryption_info_commandE(ptr noundef nonnull align 8 dereferenceable(68) %0, ptr noundef nonnull align 4 dereferenceable(20) %1) unnamed_addr #0 align 2 {
  %3 = alloca ptr, align 8
  %4 = alloca ptr, align 8
  store ptr %0, ptr %3, align 8
  store ptr %1, ptr %4, align 8
  %5 = load ptr, ptr %3, align 8
  %6 = load ptr, ptr %4, align 8
  %7 = getelementptr inbounds %"struct.LIEF::MachO::details::encryption_info_command", ptr %6, i32 0, i32 0
  %8 = load i32, ptr %7, align 4
  %9 = zext i32 %8 to i64
  %10 = load ptr, ptr %4, align 8
  %11 = getelementptr inbounds %"struct.LIEF::MachO::details::encryption_info_command", ptr %10, i32 0, i32 1
  %12 = load i32, ptr %11, align 4
  call void @_ZN4LIEF5MachO11LoadCommandC2ENS0_18LOAD_COMMAND_TYPESEj(ptr noundef nonnull align 8 dereferenceable(56) %5, i64 noundef %9, i32 noundef %12)
  store ptr getelementptr inbounds ({ [9 x ptr] }, ptr @_ZTVN4LIEF5MachO14EncryptionInfoE, i32 0, i32 0, i32 2), ptr %5, align 8
  %13 = getelementptr inbounds %"class.LIEF::MachO::EncryptionInfo", ptr %5, i32 0, i32 1
  %14 = load ptr, ptr %4, align 8
  %15 = getelementptr inbounds %"struct.LIEF::MachO::details::encryption_info_command", ptr %14, i32 0, i32 2
  %16 = load i32, ptr %15, align 4
  store i32 %16, ptr %13, align 8
  %17 = getelementptr inbounds %"class.LIEF::MachO::EncryptionInfo", ptr %5, i32 0, i32 2
  %18 = load ptr, ptr %4, align 8
  %19 = getelementptr inbounds %"struct.LIEF::MachO::details::encryption_info_command", ptr %18, i32 0, i32 3
  %20 = load i32, ptr %19, align 4
  store i32 %20, ptr %17, align 4
  %21 = getelementptr inbounds %"class.LIEF::MachO::EncryptionInfo", ptr %5, i32 0, i32 3
  %22 = load ptr, ptr %4, align 8
  %23 = getelementptr inbounds %"struct.LIEF::MachO::details::encryption_info_command", ptr %22, i32 0, i32 4
  %24 = load i32, ptr %23, align 4
  store i32 %24, ptr %21, align 8
  ret void
}